(lp0
(S'cppflags'
p1
ccopy_reg
_reconstructor
p2
(cino.utils
SpaceList
p3
c__builtin__
list
p4
(lp5
S'-mmcu=atmega328p'
p6
aS'-DF_CPU=16000000L'
p7
aS'-DARDUINO=101'
p8
aS'-I/usr/share/arduino/hardware/arduino/cores/arduino'
p9
aS'-ffunction-sections'
p10
aS'-fdata-sections'
p11
aS'-g'
p12
aS'-Os'
p13
aS'-w'
p14
aS'-I/usr/share/arduino/hardware/arduino/variants/standard'
p15
aS'-Ilib/PN532_SPI'
p16
aS'-Ilib/NDEF'
p17
aS'-Ilib/NDEF/tests'
p18
aS'-Ilib/NDEF/tests/NfcTagTest'
p19
aS'-Ilib/NDEF/tests/NdefUnitTest'
p20
aS'-Ilib/NDEF/tests/NdefMemoryTest'
p21
aS'-Ilib/NDEF/tests/NdefMessageTest'
p22
aS'-I/usr/share/arduino/libraries/SPI'
p23
aS'-Ilib/PN532'
p24
aS'-I/usr/share/arduino/hardware/arduino/cores/arduino'
p25
atp26
Rp27
tp28
a(S'cc'
p29
S'/usr/bin/avr-gcc'
p30
tp31
a(S'build_dir'
p32
S'.build/uno'
p33
tp34
a(S'avrdude'
p35
S'/usr/share/arduino/hardware/tools/avrdude'
p36
tp37
a(S'ar'
p38
S'/usr/bin/avr-ar'
p39
tp40
a(S'names'
p41
(dp42
S'cpp'
p43
S'%s.cpp'
p44
sS'obj'
p45
S'%s.o'
p46
sS'deps'
p47
S'%s.d'
p48
sS'lib'
p49
S'lib%s.a'
p50
stp51
a(S'ldflags'
p52
g2
(g3
g4
(lp53
g6
aS'-Wl,-Os'
p54
aS'-Wl,--gc-sections'
p55
atp56
Rp57
tp58
a(S'arduino_lib_version'
p59
g2
(cino.environment
Version
p60
c__builtin__
tuple
p61
(I1
I0
I1
tp62
tp63
Rp64
tp65
a(S'objcopy'
p66
S'/usr/bin/avr-objcopy'
p67
tp68
a(S'board_models'
p69
cino.environment
BoardModels
p70
((lp71
(lp72
S'uno'
p73
a(dp74
S'bootloader'
p75
(dp76
S'extended_fuses'
p77
S'0x05'
p78
sS'high_fuses'
p79
S'0xde'
p80
sS'low_fuses'
p81
S'0xff'
p82
sS'lock_bits'
p83
S'0x0F'
p84
sS'file'
p85
S'optiboot_atmega328.hex'
p86
sS'path'
p87
S'optiboot'
p88
sS'unlock_bits'
p89
S'0x3F'
p90
ssS'upload'
p91
(dp92
S'speed'
p93
S'115200'
p94
sS'maximum_size'
p95
S'32256'
p96
sS'protocol'
p97
S'arduino'
p98
ssS'name'
p99
S'Arduino Uno'
p100
sS'build'
p101
(dp102
S'core'
p103
S'arduino'
p104
sS'mcu'
p105
S'atmega328p'
p106
sS'f_cpu'
p107
S'16000000L'
p108
sS'variant'
p109
S'standard'
p110
ssaa(lp111
S'atmega328'
p112
a(dp113
S'bootloader'
p114
(dp115
S'extended_fuses'
p116
S'0x05'
p117
sS'high_fuses'
p118
S'0xDA'
p119
sS'low_fuses'
p120
S'0xFF'
p121
sS'lock_bits'
p122
S'0x0F'
p123
sS'file'
p124
S'ATmegaBOOT_168_atmega328.hex'
p125
sS'path'
p126
S'atmega'
p127
sS'unlock_bits'
p128
S'0x3F'
p129
ssS'upload'
p130
(dp131
S'speed'
p132
S'57600'
p133
sS'maximum_size'
p134
S'30720'
p135
sS'protocol'
p136
S'arduino'
p137
ssS'name'
p138
S'Arduino Duemilanove w/ ATmega328'
p139
sS'build'
p140
(dp141
S'core'
p142
S'arduino'
p143
sS'mcu'
p144
S'atmega328p'
p145
sS'f_cpu'
p146
S'16000000L'
p147
sS'variant'
p148
S'standard'
p149
ssaa(lp150
S'diecimila'
p151
a(dp152
S'bootloader'
p153
(dp154
S'extended_fuses'
p155
S'0x00'
p156
sS'high_fuses'
p157
S'0xdd'
p158
sS'low_fuses'
p159
S'0xff'
p160
sS'lock_bits'
p161
S'0x0F'
p162
sS'file'
p163
S'ATmegaBOOT_168_diecimila.hex'
p164
sS'path'
p165
S'atmega'
p166
sS'unlock_bits'
p167
S'0x3F'
p168
ssS'upload'
p169
(dp170
S'speed'
p171
S'19200'
p172
sS'maximum_size'
p173
S'14336'
p174
sS'protocol'
p175
S'arduino'
p176
ssS'name'
p177
S'Arduino Diecimila or Duemilanove w/ ATmega168'
p178
sS'build'
p179
(dp180
S'core'
p181
S'arduino'
p182
sS'mcu'
p183
S'atmega168'
p184
sS'f_cpu'
p185
S'16000000L'
p186
sS'variant'
p187
S'standard'
p188
ssaa(lp189
S'nano328'
p190
a(dp191
S'bootloader'
p192
(dp193
S'extended_fuses'
p194
S'0x05'
p195
sS'high_fuses'
p196
S'0xDA'
p197
sS'low_fuses'
p198
S'0xFF'
p199
sS'lock_bits'
p200
S'0x0F'
p201
sS'file'
p202
S'ATmegaBOOT_168_atmega328.hex'
p203
sS'path'
p204
S'atmega'
p205
sS'unlock_bits'
p206
S'0x3F'
p207
ssS'upload'
p208
(dp209
S'speed'
p210
S'57600'
p211
sS'maximum_size'
p212
S'30720'
p213
sS'protocol'
p214
S'arduino'
p215
ssS'name'
p216
S'Arduino Nano w/ ATmega328'
p217
sS'build'
p218
(dp219
S'core'
p220
S'arduino'
p221
sS'mcu'
p222
S'atmega328p'
p223
sS'f_cpu'
p224
S'16000000L'
p225
sS'variant'
p226
S'eightanaloginputs'
p227
ssaa(lp228
S'nano'
p229
a(dp230
S'bootloader'
p231
(dp232
S'extended_fuses'
p233
S'0x00'
p234
sS'high_fuses'
p235
S'0xdd'
p236
sS'low_fuses'
p237
S'0xff'
p238
sS'lock_bits'
p239
S'0x0F'
p240
sS'file'
p241
S'ATmegaBOOT_168_diecimila.hex'
p242
sS'path'
p243
S'atmega'
p244
sS'unlock_bits'
p245
S'0x3F'
p246
ssS'upload'
p247
(dp248
S'speed'
p249
S'19200'
p250
sS'maximum_size'
p251
S'14336'
p252
sS'protocol'
p253
S'arduino'
p254
ssS'name'
p255
S'Arduino Nano w/ ATmega168'
p256
sS'build'
p257
(dp258
S'core'
p259
S'arduino'
p260
sS'mcu'
p261
S'atmega168'
p262
sS'f_cpu'
p263
S'16000000L'
p264
sS'variant'
p265
S'eightanaloginputs'
p266
ssaa(lp267
S'mega2560'
p268
a(dp269
S'bootloader'
p270
(dp271
S'extended_fuses'
p272
S'0xFD'
p273
sS'high_fuses'
p274
S'0xD8'
p275
sS'low_fuses'
p276
S'0xFF'
p277
sS'lock_bits'
p278
S'0x0F'
p279
sS'file'
p280
S'stk500boot_v2_mega2560.hex'
p281
sS'path'
p282
S'stk500v2'
p283
sS'unlock_bits'
p284
S'0x3F'
p285
ssS'upload'
p286
(dp287
S'speed'
p288
S'115200'
p289
sS'maximum_size'
p290
S'258048'
p291
sS'protocol'
p292
S'stk500v2'
p293
ssS'name'
p294
S'Arduino Mega 2560 or Mega ADK'
p295
sS'build'
p296
(dp297
S'core'
p298
S'arduino'
p299
sS'mcu'
p300
S'atmega2560'
p301
sS'f_cpu'
p302
S'16000000L'
p303
sS'variant'
p304
S'mega'
p305
ssaa(lp306
S'mega'
p307
a(dp308
S'bootloader'
p309
(dp310
S'extended_fuses'
p311
S'0xF5'
p312
sS'high_fuses'
p313
S'0xDA'
p314
sS'low_fuses'
p315
S'0xFF'
p316
sS'lock_bits'
p317
S'0x0F'
p318
sS'file'
p319
S'ATmegaBOOT_168_atmega1280.hex'
p320
sS'path'
p321
S'atmega'
p322
sS'unlock_bits'
p323
S'0x3F'
p324
ssS'upload'
p325
(dp326
S'speed'
p327
S'57600'
p328
sS'maximum_size'
p329
S'126976'
p330
sS'protocol'
p331
S'arduino'
p332
ssS'name'
p333
S'Arduino Mega (ATmega1280)'
p334
sS'build'
p335
(dp336
S'core'
p337
S'arduino'
p338
sS'mcu'
p339
S'atmega1280'
p340
sS'f_cpu'
p341
S'16000000L'
p342
sS'variant'
p343
S'mega'
p344
ssaa(lp345
S'leonardo'
p346
a(dp347
S'bootloader'
p348
(dp349
S'extended_fuses'
p350
S'0xcb'
p351
sS'high_fuses'
p352
S'0xd8'
p353
sS'low_fuses'
p354
S'0xff'
p355
sS'lock_bits'
p356
S'0x2F'
p357
sS'file'
p358
S'Caterina-Leonardo.hex'
p359
sS'path'
p360
S'caterina'
p361
sS'unlock_bits'
p362
S'0x3F'
p363
ssS'upload'
p364
(dp365
S'speed'
p366
S'57600'
p367
sS'maximum_size'
p368
S'28672'
p369
sS'protocol'
p370
S'avr109'
p371
sS'disable_flushing'
p372
S'true'
p373
ssS'name'
p374
S'Arduino Leonardo'
p375
sS'build'
p376
(dp377
S'core'
p378
S'arduino'
p379
sS'f_cpu'
p380
S'16000000L'
p381
sS'vid'
p382
S'0x2341'
p383
sS'pid'
p384
S'0x8036'
p385
sS'variant'
p386
S'leonardo'
p387
sS'mcu'
p388
S'atmega32u4'
p389
ssaa(lp390
S'mini328'
p391
a(dp392
S'bootloader'
p393
(dp394
S'extended_fuses'
p395
S'0x05'
p396
sS'high_fuses'
p397
S'0xd8'
p398
sS'low_fuses'
p399
S'0xff'
p400
sS'lock_bits'
p401
S'0x0F'
p402
sS'file'
p403
S'optiboot_atmega328-Mini.hex'
p404
sS'path'
p405
S'optiboot'
p406
sS'unlock_bits'
p407
S'0x3F'
p408
ssS'upload'
p409
(dp410
S'speed'
p411
S'115200'
p412
sS'maximum_size'
p413
S'28672'
p414
sS'protocol'
p415
S'arduino'
p416
ssS'name'
p417
S'Arduino Mini w/ ATmega328'
p418
sS'build'
p419
(dp420
S'core'
p421
S'arduino'
p422
sS'mcu'
p423
S'atmega328p'
p424
sS'f_cpu'
p425
S'16000000L'
p426
sS'variant'
p427
S'eightanaloginputs'
p428
ssaa(lp429
S'mini'
p430
a(dp431
S'bootloader'
p432
(dp433
S'extended_fuses'
p434
S'0x00'
p435
sS'high_fuses'
p436
S'0xdd'
p437
sS'low_fuses'
p438
S'0xff'
p439
sS'lock_bits'
p440
S'0x0F'
p441
sS'file'
p442
S'ATmegaBOOT_168_ng.hex'
p443
sS'path'
p444
S'atmega'
p445
sS'unlock_bits'
p446
S'0x3F'
p447
ssS'upload'
p448
(dp449
S'speed'
p450
S'19200'
p451
sS'maximum_size'
p452
S'14336'
p453
sS'protocol'
p454
S'arduino'
p455
ssS'name'
p456
S'Arduino Mini w/ ATmega168'
p457
sS'build'
p458
(dp459
S'core'
p460
S'arduino'
p461
sS'mcu'
p462
S'atmega168'
p463
sS'f_cpu'
p464
S'16000000L'
p465
sS'variant'
p466
S'eightanaloginputs'
p467
ssaa(lp468
S'ethernet'
p469
a(dp470
S'bootloader'
p471
(dp472
S'extended_fuses'
p473
S'0x05'
p474
sS'high_fuses'
p475
S'0xde'
p476
sS'low_fuses'
p477
S'0xff'
p478
sS'lock_bits'
p479
S'0x0F'
p480
sS'file'
p481
S'optiboot_atmega328.hex'
p482
sS'path'
p483
S'optiboot'
p484
sS'unlock_bits'
p485
S'0x3F'
p486
ssS'upload'
p487
(dp488
S'speed'
p489
S'115200'
p490
sS'maximum_size'
p491
S'32256'
p492
sS'protocol'
p493
S'arduino'
p494
ssS'name'
p495
S'Arduino Ethernet'
p496
sS'build'
p497
(dp498
S'f_cpu'
p499
S'16000000L'
p500
sS'mcu'
p501
S'atmega328p'
p502
sS'variant'
p503
S'standard'
p504
sS'core'
p505
S'arduino'
p506
ssaa(lp507
S'fio'
p508
a(dp509
S'bootloader'
p510
(dp511
S'extended_fuses'
p512
S'0x05'
p513
sS'high_fuses'
p514
S'0xDA'
p515
sS'low_fuses'
p516
S'0xFF'
p517
sS'lock_bits'
p518
S'0x0F'
p519
sS'file'
p520
S'ATmegaBOOT_168_atmega328_pro_8MHz.hex'
p521
sS'path'
p522
S'arduino:atmega'
p523
sS'unlock_bits'
p524
S'0x3F'
p525
ssS'upload'
p526
(dp527
S'speed'
p528
S'57600'
p529
sS'maximum_size'
p530
S'30720'
p531
sS'protocol'
p532
S'arduino'
p533
ssS'name'
p534
S'Arduino Fio'
p535
sS'build'
p536
(dp537
S'core'
p538
S'arduino'
p539
sS'mcu'
p540
S'atmega328p'
p541
sS'f_cpu'
p542
S'8000000L'
p543
sS'variant'
p544
S'eightanaloginputs'
p545
ssaa(lp546
S'bt328'
p547
a(dp548
S'bootloader'
p549
(dp550
S'extended_fuses'
p551
S'0x05'
p552
sS'high_fuses'
p553
S'0xd8'
p554
sS'low_fuses'
p555
S'0xff'
p556
sS'lock_bits'
p557
S'0x0F'
p558
sS'file'
p559
S'ATmegaBOOT_168_atmega328_bt.hex'
p560
sS'path'
p561
S'bt'
p562
sS'unlock_bits'
p563
S'0x3F'
p564
ssS'upload'
p565
(dp566
S'speed'
p567
S'19200'
p568
sS'maximum_size'
p569
S'28672'
p570
sS'protocol'
p571
S'arduino'
p572
sS'disable_flushing'
p573
S'true'
p574
ssS'name'
p575
S'Arduino BT w/ ATmega328'
p576
sS'build'
p577
(dp578
S'core'
p579
S'arduino'
p580
sS'mcu'
p581
S'atmega328p'
p582
sS'f_cpu'
p583
S'16000000L'
p584
sS'variant'
p585
S'eightanaloginputs'
p586
ssaa(lp587
S'bt'
p588
a(dp589
S'bootloader'
p590
(dp591
S'extended_fuses'
p592
S'0x00'
p593
sS'high_fuses'
p594
S'0xdd'
p595
sS'low_fuses'
p596
S'0xff'
p597
sS'lock_bits'
p598
S'0x0F'
p599
sS'file'
p600
S'ATmegaBOOT_168.hex'
p601
sS'path'
p602
S'bt'
p603
sS'unlock_bits'
p604
S'0x3F'
p605
ssS'upload'
p606
(dp607
S'speed'
p608
S'19200'
p609
sS'maximum_size'
p610
S'14336'
p611
sS'protocol'
p612
S'arduino'
p613
sS'disable_flushing'
p614
S'true'
p615
ssS'name'
p616
S'Arduino BT w/ ATmega168'
p617
sS'build'
p618
(dp619
S'core'
p620
S'arduino'
p621
sS'mcu'
p622
S'atmega168'
p623
sS'f_cpu'
p624
S'16000000L'
p625
sS'variant'
p626
S'eightanaloginputs'
p627
ssaa(lp628
S'lilypad328'
p629
a(dp630
S'bootloader'
p631
(dp632
S'extended_fuses'
p633
S'0x05'
p634
sS'high_fuses'
p635
S'0xDA'
p636
sS'low_fuses'
p637
S'0xFF'
p638
sS'lock_bits'
p639
S'0x0F'
p640
sS'file'
p641
S'ATmegaBOOT_168_atmega328_pro_8MHz.hex'
p642
sS'path'
p643
S'atmega'
p644
sS'unlock_bits'
p645
S'0x3F'
p646
ssS'upload'
p647
(dp648
S'speed'
p649
S'57600'
p650
sS'maximum_size'
p651
S'30720'
p652
sS'protocol'
p653
S'arduino'
p654
ssS'name'
p655
S'LilyPad Arduino w/ ATmega328'
p656
sS'build'
p657
(dp658
S'core'
p659
S'arduino'
p660
sS'mcu'
p661
S'atmega328p'
p662
sS'f_cpu'
p663
S'8000000L'
p664
sS'variant'
p665
S'standard'
p666
ssaa(lp667
S'lilypad'
p668
a(dp669
S'bootloader'
p670
(dp671
S'extended_fuses'
p672
S'0x00'
p673
sS'high_fuses'
p674
S'0xdd'
p675
sS'low_fuses'
p676
S'0xe2'
p677
sS'lock_bits'
p678
S'0x0F'
p679
sS'file'
p680
S'LilyPadBOOT_168.hex'
p681
sS'path'
p682
S'lilypad'
p683
sS'unlock_bits'
p684
S'0x3F'
p685
ssS'upload'
p686
(dp687
S'speed'
p688
S'19200'
p689
sS'maximum_size'
p690
S'14336'
p691
sS'protocol'
p692
S'arduino'
p693
ssS'name'
p694
S'LilyPad Arduino w/ ATmega168'
p695
sS'build'
p696
(dp697
S'core'
p698
S'arduino'
p699
sS'mcu'
p700
S'atmega168'
p701
sS'f_cpu'
p702
S'8000000L'
p703
sS'variant'
p704
S'standard'
p705
ssaa(lp706
S'pro5v328'
p707
a(dp708
S'bootloader'
p709
(dp710
S'extended_fuses'
p711
S'0x05'
p712
sS'high_fuses'
p713
S'0xDA'
p714
sS'low_fuses'
p715
S'0xFF'
p716
sS'lock_bits'
p717
S'0x0F'
p718
sS'file'
p719
S'ATmegaBOOT_168_atmega328.hex'
p720
sS'path'
p721
S'atmega'
p722
sS'unlock_bits'
p723
S'0x3F'
p724
ssS'upload'
p725
(dp726
S'speed'
p727
S'57600'
p728
sS'maximum_size'
p729
S'30720'
p730
sS'protocol'
p731
S'arduino'
p732
ssS'name'
p733
S'Arduino Pro or Pro Mini (5V, 16 MHz) w/ ATmega328'
p734
sS'build'
p735
(dp736
S'core'
p737
S'arduino'
p738
sS'mcu'
p739
S'atmega328p'
p740
sS'f_cpu'
p741
S'16000000L'
p742
sS'variant'
p743
S'standard'
p744
ssaa(lp745
S'pro5v'
p746
a(dp747
S'bootloader'
p748
(dp749
S'extended_fuses'
p750
S'0x00'
p751
sS'high_fuses'
p752
S'0xdd'
p753
sS'low_fuses'
p754
S'0xff'
p755
sS'lock_bits'
p756
S'0x0F'
p757
sS'file'
p758
S'ATmegaBOOT_168_diecimila.hex'
p759
sS'path'
p760
S'atmega'
p761
sS'unlock_bits'
p762
S'0x3F'
p763
ssS'upload'
p764
(dp765
S'speed'
p766
S'19200'
p767
sS'maximum_size'
p768
S'14336'
p769
sS'protocol'
p770
S'arduino'
p771
ssS'name'
p772
S'Arduino Pro or Pro Mini (5V, 16 MHz) w/ ATmega168'
p773
sS'build'
p774
(dp775
S'core'
p776
S'arduino'
p777
sS'mcu'
p778
S'atmega168'
p779
sS'f_cpu'
p780
S'16000000L'
p781
sS'variant'
p782
S'standard'
p783
ssaa(lp784
S'pro328'
p785
a(dp786
S'bootloader'
p787
(dp788
S'extended_fuses'
p789
S'0x05'
p790
sS'high_fuses'
p791
S'0xDA'
p792
sS'low_fuses'
p793
S'0xFF'
p794
sS'lock_bits'
p795
S'0x0F'
p796
sS'file'
p797
S'ATmegaBOOT_168_atmega328_pro_8MHz.hex'
p798
sS'path'
p799
S'atmega'
p800
sS'unlock_bits'
p801
S'0x3F'
p802
ssS'upload'
p803
(dp804
S'speed'
p805
S'57600'
p806
sS'maximum_size'
p807
S'30720'
p808
sS'protocol'
p809
S'arduino'
p810
ssS'name'
p811
S'Arduino Pro or Pro Mini (3.3V, 8 MHz) w/ ATmega328'
p812
sS'build'
p813
(dp814
S'core'
p815
S'arduino'
p816
sS'mcu'
p817
S'atmega328p'
p818
sS'f_cpu'
p819
S'8000000L'
p820
sS'variant'
p821
S'standard'
p822
ssaa(lp823
S'pro'
p824
a(dp825
S'bootloader'
p826
(dp827
S'extended_fuses'
p828
S'0x00'
p829
sS'high_fuses'
p830
S'0xdd'
p831
sS'low_fuses'
p832
S'0xc6'
p833
sS'lock_bits'
p834
S'0x0F'
p835
sS'file'
p836
S'ATmegaBOOT_168_pro_8MHz.hex'
p837
sS'path'
p838
S'atmega'
p839
sS'unlock_bits'
p840
S'0x3F'
p841
ssS'upload'
p842
(dp843
S'speed'
p844
S'19200'
p845
sS'maximum_size'
p846
S'14336'
p847
sS'protocol'
p848
S'arduino'
p849
ssS'name'
p850
S'Arduino Pro or Pro Mini (3.3V, 8 MHz) w/ ATmega168'
p851
sS'build'
p852
(dp853
S'core'
p854
S'arduino'
p855
sS'mcu'
p856
S'atmega168'
p857
sS'f_cpu'
p858
S'8000000L'
p859
sS'variant'
p860
S'standard'
p861
ssaa(lp862
S'atmega168'
p863
a(dp864
S'bootloader'
p865
(dp866
S'extended_fuses'
p867
S'0x00'
p868
sS'high_fuses'
p869
S'0xdd'
p870
sS'low_fuses'
p871
S'0xff'
p872
sS'lock_bits'
p873
S'0x0F'
p874
sS'file'
p875
S'ATmegaBOOT_168_ng.hex'
p876
sS'path'
p877
S'atmega'
p878
sS'unlock_bits'
p879
S'0x3F'
p880
ssS'upload'
p881
(dp882
S'speed'
p883
S'19200'
p884
sS'maximum_size'
p885
S'14336'
p886
sS'protocol'
p887
S'arduino'
p888
ssS'name'
p889
S'Arduino NG or older w/ ATmega168'
p890
sS'build'
p891
(dp892
S'core'
p893
S'arduino'
p894
sS'mcu'
p895
S'atmega168'
p896
sS'f_cpu'
p897
S'16000000L'
p898
sS'variant'
p899
S'standard'
p900
ssaa(lp901
S'atmega8'
p902
a(dp903
S'bootloader'
p904
(dp905
S'high_fuses'
p906
S'0xca'
p907
sS'low_fuses'
p908
S'0xdf'
p909
sS'lock_bits'
p910
S'0x0F'
p911
sS'file'
p912
S'ATmegaBOOT.hex'
p913
sS'path'
p914
S'atmega8'
p915
sS'unlock_bits'
p916
S'0x3F'
p917
ssS'upload'
p918
(dp919
S'speed'
p920
S'19200'
p921
sS'maximum_size'
p922
S'7168'
p923
sS'protocol'
p924
S'arduino'
p925
ssS'name'
p926
S'Arduino NG or older w/ ATmega8'
p927
sS'build'
p928
(dp929
S'core'
p930
S'arduino'
p931
sS'mcu'
p932
S'atmega8'
p933
sS'f_cpu'
p934
S'16000000L'
p935
sS'variant'
p936
S'standard'
p937
ssaatp938
Rp939
(dp940
S'default'
p941
S'uno'
p942
sbtp943
a(S'used_libs'
p944
(lp945
S'lib/PN532_SPI'
p946
aS'lib/NDEF'
p947
aS'/usr/share/arduino/libraries/SPI'
p948
aS'lib/PN532'
p949
aS'/usr/share/arduino/hardware/arduino/cores/arduino'
p950
atp951
a(S'make'
p952
S'/usr/bin/make'
p953
tp954
a(S'arduino_libraries_dir'
p955
S'/usr/share/arduino/libraries'
p956
tp957
a(S'cxx'
p958
S'/usr/bin/avr-g++'
p959
tp960
a(S'cflags'
p961
g2
(g3
g4
(lp962
tp963
Rp964
tp965
a(S'cxxflags'
p966
g2
(g3
g4
(lp967
S'-fno-exceptions'
p968
atp969
Rp970
tp971
a(S'arduino_variants_dir'
p972
S'/usr/share/arduino/hardware/arduino/variants'
p973
tp974
a(S'serial'
p975
S'/usr/bin/picocom'
p976
tp977
a(S'stty'
p978
S'/bin/stty'
p979
tp980
a(S'version.txt'
p981
S'/usr/share/arduino/lib/version.txt'
p982
tp983
a(S'arduino_core_dir'
p984
g950
tp985
a(S'boards.txt'
p986
S'/usr/share/arduino/hardware/arduino/boards.txt'
p987
tp988
a(S'avrdude.conf'
p989
S'/usr/share/arduino/hardware/tools/avrdude.conf'
p990
tp991
a(S'deps'
p992
g2
(g3
g4
(lp993
S'.build/uno/src/dependencies.d'
p994
aS'.build/uno/arduino/dependencies.d'
p995
aS'.build/uno/PN532_SPI/dependencies.d'
p996
aS'.build/uno/NDEF/dependencies.d'
p997
aS'.build/uno/SPI/dependencies.d'
p998
aS'.build/uno/PN532/dependencies.d'
p999
atp1000
Rp1001
tp1002
a.